; Function Attrs: nounwind uwtable
define ptr @l_Lean_Compiler_LCNF_Alt_forCodeM___at_Lean_Compiler_LCNF_Code_forFVarM___spec__4___rarg(ptr noundef %0, ptr noundef %1) #0 {
  %3 = ptrtoint ptr %0 to i64
  %4 = and i64 %3, 1
  %.not.i18 = icmp eq i64 %4, 0
  br i1 %.not.i18, label %8, label %5

5:                                                ; preds = %2
  %6 = lshr i64 %3, 1
  %7 = trunc i64 %6 to i32
  br label %lean_obj_tag.exit

8:                                                ; preds = %2
  %9 = getelementptr i8, ptr %0, i64 4
  %.val.i = load i32, ptr %9, align 4
  %10 = lshr i32 %.val.i, 24
  br label %lean_obj_tag.exit

lean_obj_tag.exit:                                ; preds = %5, %8
  %.0.i = phi i32 [ %7, %5 ], [ %10, %8 ]
  %11 = icmp eq i32 %.0.i, 0
  br i1 %11, label %12, label %30

12:                                               ; preds = %lean_obj_tag.exit
  %13 = getelementptr inbounds nuw i8, ptr %0, i64 24
  %14 = load ptr, ptr %13, align 8, !tbaa !4
  %15 = ptrtoint ptr %14 to i64
  %16 = and i64 %15, 1
  %.not25 = icmp eq i64 %16, 0
  br i1 %.not25, label %17, label %lean_inc.exit14

17:                                               ; preds = %12
  %.val.i19 = load i32, ptr %14, align 4, !tbaa !8
  %18 = icmp sgt i32 %.val.i19, 0
  br i1 %18, label %19, label %21, !prof !13

19:                                               ; preds = %17
  %20 = add nuw i32 %.val.i19, 1
  store i32 %20, ptr %14, align 4, !tbaa !8
  br label %lean_inc.exit14

21:                                               ; preds = %17
  %.not.i20 = icmp eq i32 %.val.i19, 0
  br i1 %.not.i20, label %lean_inc.exit14, label %22

22:                                               ; preds = %21
  tail call void @lean_inc_ref_cold(ptr noundef nonnull %14) #4
  br label %lean_inc.exit14

lean_inc.exit14:                                  ; preds = %22, %21, %19, %12
  br i1 %.not.i18, label %23, label %lean_dec.exit15

23:                                               ; preds = %lean_inc.exit14
  %24 = load i32, ptr %0, align 4, !tbaa !8
  %25 = icmp sgt i32 %24, 1
  br i1 %25, label %26, label %28, !prof !13

26:                                               ; preds = %23
  %27 = add nsw i32 %24, -1
  store i32 %27, ptr %0, align 4, !tbaa !8
  br label %lean_dec.exit15

28:                                               ; preds = %23
  %.not.i = icmp eq i32 %24, 0
  br i1 %.not.i, label %lean_dec.exit15, label %29

29:                                               ; preds = %28
  tail call void @lean_dec_ref_cold(ptr noundef nonnull %0) #4
  br label %lean_dec.exit15

30:                                               ; preds = %lean_obj_tag.exit
  %31 = getelementptr inbounds nuw i8, ptr %0, i64 8
  %32 = load ptr, ptr %31, align 8, !tbaa !4
  %33 = ptrtoint ptr %32 to i64
  %34 = and i64 %33, 1
  %.not = icmp eq i64 %34, 0
  br i1 %.not, label %35, label %lean_inc.exit

35:                                               ; preds = %30
  %.val.i21 = load i32, ptr %32, align 4, !tbaa !8
  %36 = icmp sgt i32 %.val.i21, 0
  br i1 %36, label %37, label %39, !prof !13

37:                                               ; preds = %35
  %38 = add nuw i32 %.val.i21, 1
  store i32 %38, ptr %32, align 4, !tbaa !8
  br label %lean_inc.exit

39:                                               ; preds = %35
  %.not.i22 = icmp eq i32 %.val.i21, 0
  br i1 %.not.i22, label %lean_inc.exit, label %40

40:                                               ; preds = %39
  tail call void @lean_inc_ref_cold(ptr noundef nonnull %32) #4
  br label %lean_inc.exit

lean_inc.exit:                                    ; preds = %40, %39, %37, %30
  br i1 %.not.i18, label %41, label %lean_dec.exit15

41:                                               ; preds = %lean_inc.exit
  %42 = load i32, ptr %0, align 4, !tbaa !8
  %43 = icmp sgt i32 %42, 1
  br i1 %43, label %44, label %46, !prof !13

44:                                               ; preds = %41
  %45 = add nsw i32 %42, -1
  store i32 %45, ptr %0, align 4, !tbaa !8
  br label %lean_dec.exit15

46:                                               ; preds = %41
  %.not.i16 = icmp eq i32 %42, 0
  br i1 %.not.i16, label %lean_dec.exit15, label %47

47:                                               ; preds = %46
  tail call void @lean_dec_ref_cold(ptr noundef nonnull %0) #4
  br label %lean_dec.exit15

lean_dec.exit15:                                  ; preds = %lean_inc.exit, %44, %46, %47, %lean_inc.exit14, %26, %28, %29
  %.sink = phi ptr [ %14, %29 ], [ %14, %28 ], [ %14, %26 ], [ %14, %lean_inc.exit14 ], [ %32, %47 ], [ %32, %46 ], [ %32, %44 ], [ %32, %lean_inc.exit ]
  %48 = tail call ptr @lean_apply_1(ptr noundef %1, ptr noundef %.sink) #4
  ret ptr %48
}